; ModuleID = '39/98.c'
source_filename = "39/98.c"
target datalayout = "e-m:e-p270:32:32-p271:32:32-p272:64:64-i64:64-f80:128-n8:16:32:64-S128"
target triple = "x86_64-pc-linux-gnu"

%struct.student = type { [20 x i8], i32, i32, i8, i8, i32, i32, %struct.student* }

@.str = private unnamed_addr constant [18 x i8] c"%s %d %d %c %c %d\00", align 1
@stu_num = common dso_local global i32 0, align 4
@.str.1 = private unnamed_addr constant [3 x i8] c"%d\00", align 1
@.str.2 = private unnamed_addr constant [10 x i8] c"%s\0A%d\0A%d\0A\00", align 1

; Function Attrs: noinline nounwind uwtable
define dso_local %struct.student* @creat() #0 {
  %1 = alloca %struct.student*, align 8
  %2 = alloca %struct.student*, align 8
  %3 = alloca %struct.student*, align 8
  %4 = alloca i32, align 4
  %5 = call noalias i8* @malloc(i64 100) #3
  %6 = bitcast i8* %5 to %struct.student*
  store %struct.student* %6, %struct.student** %3, align 8
  store %struct.student* %6, %struct.student** %2, align 8
  %7 = load %struct.student*, %struct.student** %2, align 8
  %8 = getelementptr inbounds %struct.student, %struct.student* %7, i32 0, i32 0
  %9 = getelementptr inbounds [20 x i8], [20 x i8]* %8, i64 0, i64 0
  %10 = load %struct.student*, %struct.student** %2, align 8
  %11 = getelementptr inbounds %struct.student, %struct.student* %10, i32 0, i32 1
  %12 = load %struct.student*, %struct.student** %2, align 8
  %13 = getelementptr inbounds %struct.student, %struct.student* %12, i32 0, i32 2
  %14 = load %struct.student*, %struct.student** %2, align 8
  %15 = getelementptr inbounds %struct.student, %struct.student* %14, i32 0, i32 3
  %16 = load %struct.student*, %struct.student** %2, align 8
  %17 = getelementptr inbounds %struct.student, %struct.student* %16, i32 0, i32 4
  %18 = load %struct.student*, %struct.student** %2, align 8
  %19 = getelementptr inbounds %struct.student, %struct.student* %18, i32 0, i32 5
  %20 = call i32 (i8*, ...) @__isoc99_scanf(i8* getelementptr inbounds ([18 x i8], [18 x i8]* @.str, i64 0, i64 0), i8* %9, i32* %11, i32* %13, i8* %15, i8* %17, i32* %19)
  store %struct.student* null, %struct.student** %1, align 8
  store i32 0, i32* %4, align 4
  br label %21

21:                                               ; preds = %36, %0
  %22 = load i32, i32* %4, align 4
  %23 = load i32, i32* @stu_num, align 4
  %24 = icmp slt i32 %22, %23
  br i1 %24, label %25, label %54

25:                                               ; preds = %21
  %26 = load i32, i32* %4, align 4
  %27 = add nsw i32 %26, 1
  store i32 %27, i32* %4, align 4
  %28 = load i32, i32* %4, align 4
  %29 = icmp eq i32 %28, 1
  br i1 %29, label %30, label %32

30:                                               ; preds = %25
  %31 = load %struct.student*, %struct.student** %2, align 8
  store %struct.student* %31, %struct.student** %1, align 8
  br label %36

32:                                               ; preds = %25
  %33 = load %struct.student*, %struct.student** %2, align 8
  %34 = load %struct.student*, %struct.student** %3, align 8
  %35 = getelementptr inbounds %struct.student, %struct.student* %34, i32 0, i32 7
  store %struct.student* %33, %struct.student** %35, align 8
  br label %36

36:                                               ; preds = %32, %30
  %37 = load %struct.student*, %struct.student** %2, align 8
  store %struct.student* %37, %struct.student** %3, align 8
  %38 = call noalias i8* @malloc(i64 100) #3
  %39 = bitcast i8* %38 to %struct.student*
  store %struct.student* %39, %struct.student** %2, align 8
  %40 = load %struct.student*, %struct.student** %2, align 8
  %41 = getelementptr inbounds %struct.student, %struct.student* %40, i32 0, i32 0
  %42 = getelementptr inbounds [20 x i8], [20 x i8]* %41, i64 0, i64 0
  %43 = load %struct.student*, %struct.student** %2, align 8
  %44 = getelementptr inbounds %struct.student, %struct.student* %43, i32 0, i32 1
  %45 = load %struct.student*, %struct.student** %2, align 8
  %46 = getelementptr inbounds %struct.student, %struct.student* %45, i32 0, i32 2
  %47 = load %struct.student*, %struct.student** %2, align 8
  %48 = getelementptr inbounds %struct.student, %struct.student* %47, i32 0, i32 3
  %49 = load %struct.student*, %struct.student** %2, align 8
  %50 = getelementptr inbounds %struct.student, %struct.student* %49, i32 0, i32 4
  %51 = load %struct.student*, %struct.student** %2, align 8
  %52 = getelementptr inbounds %struct.student, %struct.student* %51, i32 0, i32 5
  %53 = call i32 (i8*, ...) @__isoc99_scanf(i8* getelementptr inbounds ([18 x i8], [18 x i8]* @.str, i64 0, i64 0), i8* %42, i32* %44, i32* %46, i8* %48, i8* %50, i32* %52)
  br label %21

54:                                               ; preds = %21
  %55 = load %struct.student*, %struct.student** %3, align 8
  %56 = getelementptr inbounds %struct.student, %struct.student* %55, i32 0, i32 7
  store %struct.student* null, %struct.student** %56, align 8
  %57 = load %struct.student*, %struct.student** %1, align 8
  ret %struct.student* %57
}

; Function Attrs: nounwind
declare dso_local noalias i8* @malloc(i64) #1

declare dso_local i32 @__isoc99_scanf(i8*, ...) #2

; Function Attrs: noinline nounwind uwtable
define dso_local void @main() #0 {
  %1 = alloca %struct.student*, align 8
  %2 = alloca %struct.student*, align 8
  %3 = alloca %struct.student*, align 8
  %4 = alloca i32, align 4
  store i32 0, i32* %4, align 4
  %5 = call i32 (i8*, ...) @__isoc99_scanf(i8* getelementptr inbounds ([3 x i8], [3 x i8]* @.str.1, i64 0, i64 0), i32* @stu_num)
  %6 = call %struct.student* @creat()
  store %struct.student* %6, %struct.student** %1, align 8
  %7 = load %struct.student*, %struct.student** %1, align 8
  store %struct.student* %7, %struct.student** %2, align 8
  %8 = load %struct.student*, %struct.student** %1, align 8
  store %struct.student* %8, %struct.student** %3, align 8
  br label %9

9:                                                ; preds = %101, %0
  %10 = load %struct.student*, %struct.student** %2, align 8
  %11 = icmp ne %struct.student* %10, null
  br i1 %11, label %12, label %105

12:                                               ; preds = %9
  %13 = load %struct.student*, %struct.student** %2, align 8
  %14 = getelementptr inbounds %struct.student, %struct.student* %13, i32 0, i32 6
  store i32 0, i32* %14, align 4
  %15 = load %struct.student*, %struct.student** %2, align 8
  %16 = getelementptr inbounds %struct.student, %struct.student* %15, i32 0, i32 1
  %17 = load i32, i32* %16, align 4
  %18 = icmp sgt i32 %17, 80
  br i1 %18, label %19, label %29

19:                                               ; preds = %12
  %20 = load %struct.student*, %struct.student** %2, align 8
  %21 = getelementptr inbounds %struct.student, %struct.student* %20, i32 0, i32 5
  %22 = load i32, i32* %21, align 8
  %23 = icmp sgt i32 %22, 0
  br i1 %23, label %24, label %29

24:                                               ; preds = %19
  %25 = load %struct.student*, %struct.student** %2, align 8
  %26 = getelementptr inbounds %struct.student, %struct.student* %25, i32 0, i32 6
  %27 = load i32, i32* %26, align 4
  %28 = add nsw i32 %27, 8000
  store i32 %28, i32* %26, align 4
  br label %29

29:                                               ; preds = %24, %19, %12
  %30 = load %struct.student*, %struct.student** %2, align 8
  %31 = getelementptr inbounds %struct.student, %struct.student* %30, i32 0, i32 1
  %32 = load i32, i32* %31, align 4
  %33 = icmp sgt i32 %32, 85
  br i1 %33, label %34, label %44

34:                                               ; preds = %29
  %35 = load %struct.student*, %struct.student** %2, align 8
  %36 = getelementptr inbounds %struct.student, %struct.student* %35, i32 0, i32 2
  %37 = load i32, i32* %36, align 8
  %38 = icmp sgt i32 %37, 80
  br i1 %38, label %39, label %44

39:                                               ; preds = %34
  %40 = load %struct.student*, %struct.student** %2, align 8
  %41 = getelementptr inbounds %struct.student, %struct.student* %40, i32 0, i32 6
  %42 = load i32, i32* %41, align 4
  %43 = add nsw i32 %42, 4000
  store i32 %43, i32* %41, align 4
  br label %44

44:                                               ; preds = %39, %34, %29
  %45 = load %struct.student*, %struct.student** %2, align 8
  %46 = getelementptr inbounds %struct.student, %struct.student* %45, i32 0, i32 1
  %47 = load i32, i32* %46, align 4
  %48 = icmp sgt i32 %47, 90
  br i1 %48, label %49, label %54

49:                                               ; preds = %44
  %50 = load %struct.student*, %struct.student** %2, align 8
  %51 = getelementptr inbounds %struct.student, %struct.student* %50, i32 0, i32 6
  %52 = load i32, i32* %51, align 4
  %53 = add nsw i32 %52, 2000
  store i32 %53, i32* %51, align 4
  br label %54

54:                                               ; preds = %49, %44
  %55 = load %struct.student*, %struct.student** %2, align 8
  %56 = getelementptr inbounds %struct.student, %struct.student* %55, i32 0, i32 1
  %57 = load i32, i32* %56, align 4
  %58 = icmp sgt i32 %57, 85
  br i1 %58, label %59, label %70

59:                                               ; preds = %54
  %60 = load %struct.student*, %struct.student** %2, align 8
  %61 = getelementptr inbounds %struct.student, %struct.student* %60, i32 0, i32 4
  %62 = load i8, i8* %61, align 1
  %63 = sext i8 %62 to i32
  %64 = icmp eq i32 %63, 89
  br i1 %64, label %65, label %70

65:                                               ; preds = %59
  %66 = load %struct.student*, %struct.student** %2, align 8
  %67 = getelementptr inbounds %struct.student, %struct.student* %66, i32 0, i32 6
  %68 = load i32, i32* %67, align 4
  %69 = add nsw i32 %68, 1000
  store i32 %69, i32* %67, align 4
  br label %70

70:                                               ; preds = %65, %59, %54
  %71 = load %struct.student*, %struct.student** %2, align 8
  %72 = getelementptr inbounds %struct.student, %struct.student* %71, i32 0, i32 2
  %73 = load i32, i32* %72, align 8
  %74 = icmp sgt i32 %73, 80
  br i1 %74, label %75, label %86

75:                                               ; preds = %70
  %76 = load %struct.student*, %struct.student** %2, align 8
  %77 = getelementptr inbounds %struct.student, %struct.student* %76, i32 0, i32 3
  %78 = load i8, i8* %77, align 4
  %79 = sext i8 %78 to i32
  %80 = icmp eq i32 %79, 89
  br i1 %80, label %81, label %86

81:                                               ; preds = %75
  %82 = load %struct.student*, %struct.student** %2, align 8
  %83 = getelementptr inbounds %struct.student, %struct.student* %82, i32 0, i32 6
  %84 = load i32, i32* %83, align 4
  %85 = add nsw i32 %84, 850
  store i32 %85, i32* %83, align 4
  br label %86

86:                                               ; preds = %81, %75, %70
  %87 = load %struct.student*, %struct.student** %2, align 8
  %88 = getelementptr inbounds %struct.student, %struct.student* %87, i32 0, i32 6
  %89 = load i32, i32* %88, align 4
  %90 = load i32, i32* %4, align 4
  %91 = add nsw i32 %90, %89
  store i32 %91, i32* %4, align 4
  %92 = load %struct.student*, %struct.student** %3, align 8
  %93 = getelementptr inbounds %struct.student, %struct.student* %92, i32 0, i32 6
  %94 = load i32, i32* %93, align 4
  %95 = load %struct.student*, %struct.student** %2, align 8
  %96 = getelementptr inbounds %struct.student, %struct.student* %95, i32 0, i32 6
  %97 = load i32, i32* %96, align 4
  %98 = icmp slt i32 %94, %97
  br i1 %98, label %99, label %101

99:                                               ; preds = %86
  %100 = load %struct.student*, %struct.student** %2, align 8
  store %struct.student* %100, %struct.student** %3, align 8
  br label %101

101:                                              ; preds = %99, %86
  %102 = load %struct.student*, %struct.student** %2, align 8
  %103 = getelementptr inbounds %struct.student, %struct.student* %102, i32 0, i32 7
  %104 = load %struct.student*, %struct.student** %103, align 8
  store %struct.student* %104, %struct.student** %2, align 8
  br label %9

105:                                              ; preds = %9
  %106 = load %struct.student*, %struct.student** %3, align 8
  %107 = getelementptr inbounds %struct.student, %struct.student* %106, i32 0, i32 0
  %108 = getelementptr inbounds [20 x i8], [20 x i8]* %107, i64 0, i64 0
  %109 = load %struct.student*, %struct.student** %3, align 8
  %110 = getelementptr inbounds %struct.student, %struct.student* %109, i32 0, i32 6
  %111 = load i32, i32* %110, align 4
  %112 = load i32, i32* %4, align 4
  %113 = call i32 (i8*, ...) @printf(i8* getelementptr inbounds ([10 x i8], [10 x i8]* @.str.2, i64 0, i64 0), i8* %108, i32 %111, i32 %112)
  ret void
}

declare dso_local i32 @printf(i8*, ...) #2


!llvm.module.flags = !{!0}
!llvm.ident = !{!1}

!0 = !{i32 1, !"wchar_size", i32 4}
!1 = !{!"clang version 10.0.0-4ubuntu1 "}
